target datalayout = "e-m:e-p270:32:32-p271:32:32-p272:64:64-i64:64-i128:128-f80:128-n8:16:32:64-S128"
target triple = "x86_64-pc-linux-gnu"

%"class.llvm::Register" = type { i32 }
%"class.llvm::CoalescerPair" = type { ptr, %"class.llvm::Register", %"class.llvm::Register", i32, i32, i8, i8, i8, ptr }
%class.anon.600 = type { ptr, ptr, ptr, ptr }
%class.anon.601 = type { ptr, ptr, ptr, ptr }

; Function Attrs: mustprogress nounwind uwtable
define internal void @"_ZZN12_GLOBAL__N_117RegisterCoalescer28checkMergingChangesDbgValuesERN4llvm13CoalescerPairERNS1_9LiveRangeERNS_8JoinValsES5_S7_ENK3$_1clENS1_8RegisterE"(ptr noundef nonnull align 8 dereferenceable(32) %0, i32 %1) #1 align 2 {
  %3 = alloca %"class.llvm::Register", align 4
  %4 = alloca ptr, align 8
  %5 = alloca %"class.llvm::Register", align 4
  %6 = getelementptr inbounds nuw %"class.llvm::Register", ptr %3, i32 0, i32 0
  store i32 %1, ptr %6, align 4
  store ptr %0, ptr %4, align 8
  %7 = load ptr, ptr %4, align 8
  %8 = getelementptr inbounds nuw %class.anon.600, ptr %7, i32 0, i32 0
  %9 = load ptr, ptr %8, align 8
  call void @llvm.memcpy.p0.p0.i64(ptr align 4 %5, ptr align 4 %3, i64 4, i1 false)
  %10 = getelementptr inbounds nuw %class.anon.600, ptr %7, i32 0, i32 1
  %11 = load ptr, ptr %10, align 8
  %12 = getelementptr inbounds nuw %class.anon.600, ptr %7, i32 0, i32 2
  %13 = load ptr, ptr %12, align 8
  %14 = getelementptr inbounds nuw %class.anon.600, ptr %7, i32 0, i32 3
  %15 = load ptr, ptr %14, align 8
  %16 = getelementptr inbounds nuw %"class.llvm::Register", ptr %5, i32 0, i32 0
  %17 = load i32, ptr %16, align 4
  call void @_ZN12_GLOBAL__N_117RegisterCoalescer32checkMergingChangesDbgValuesImplEN4llvm8RegisterERNS1_9LiveRangeES4_RNS_8JoinValsE(ptr noundef nonnull align 8 dereferenceable(960) %9, i32 %17, ptr noundef nonnull align 8 dereferenceable(104) %11, ptr noundef nonnull align 8 dereferenceable(104) %13, ptr noundef nonnull align 8 dereferenceable(520) %15)
  ret void
}

; Function Attrs: mustprogress nounwind uwtable
define linkonce_odr hidden i32 @_ZNK4llvm13CoalescerPair9getDstRegEv(ptr noundef nonnull align 8 dereferenceable(40) %0) #1 comdat align 2 {
  %2 = alloca %"class.llvm::Register", align 4
  %3 = alloca ptr, align 8
  store ptr %0, ptr %3, align 8
  %4 = load ptr, ptr %3, align 8
  %5 = getelementptr inbounds nuw %"class.llvm::CoalescerPair", ptr %4, i32 0, i32 1
  call void @llvm.memcpy.p0.p0.i64(ptr align 4 %2, ptr align 8 %5, i64 4, i1 false)
  %6 = getelementptr inbounds nuw %"class.llvm::Register", ptr %2, i32 0, i32 0
  %7 = load i32, ptr %6, align 4
  ret i32 %7
}

; Function Attrs: mustprogress nounwind uwtable
define internal void @"_ZZN12_GLOBAL__N_117RegisterCoalescer28checkMergingChangesDbgValuesERN4llvm13CoalescerPairERNS1_9LiveRangeERNS_8JoinValsES5_S7_ENK3$_0clENS1_8RegisterE"(ptr noundef nonnull align 8 dereferenceable(32) %0, i32 %1) #1 align 2 {
  %3 = alloca %"class.llvm::Register", align 4
  %4 = alloca ptr, align 8
  %5 = alloca %"class.llvm::Register", align 4
  %6 = getelementptr inbounds nuw %"class.llvm::Register", ptr %3, i32 0, i32 0
  store i32 %1, ptr %6, align 4
  store ptr %0, ptr %4, align 8
  %7 = load ptr, ptr %4, align 8
  %8 = getelementptr inbounds nuw %class.anon.601, ptr %7, i32 0, i32 0
  %9 = load ptr, ptr %8, align 8
  call void @llvm.memcpy.p0.p0.i64(ptr align 4 %5, ptr align 4 %3, i64 4, i1 false)
  %10 = getelementptr inbounds nuw %class.anon.601, ptr %7, i32 0, i32 1
  %11 = load ptr, ptr %10, align 8
  %12 = getelementptr inbounds nuw %class.anon.601, ptr %7, i32 0, i32 2
  %13 = load ptr, ptr %12, align 8
  %14 = getelementptr inbounds nuw %class.anon.601, ptr %7, i32 0, i32 3
  %15 = load ptr, ptr %14, align 8
  %16 = getelementptr inbounds nuw %"class.llvm::Register", ptr %5, i32 0, i32 0
  %17 = load i32, ptr %16, align 4
  call void @_ZN12_GLOBAL__N_117RegisterCoalescer32checkMergingChangesDbgValuesImplEN4llvm8RegisterERNS1_9LiveRangeES4_RNS_8JoinValsE(ptr noundef nonnull align 8 dereferenceable(960) %9, i32 %17, ptr noundef nonnull align 8 dereferenceable(104) %11, ptr noundef nonnull align 8 dereferenceable(104) %13, ptr noundef nonnull align 8 dereferenceable(520) %15)
  ret void
}

; Function Attrs: mustprogress nounwind uwtable
define linkonce_odr hidden i32 @_ZNK4llvm13CoalescerPair9getSrcRegEv(ptr noundef nonnull align 8 dereferenceable(40) %0) #1 comdat align 2 {
  %2 = alloca %"class.llvm::Register", align 4
  %3 = alloca ptr, align 8
  store ptr %0, ptr %3, align 8
  %4 = load ptr, ptr %3, align 8
  %5 = getelementptr inbounds nuw %"class.llvm::CoalescerPair", ptr %4, i32 0, i32 2
  call void @llvm.memcpy.p0.p0.i64(ptr align 4 %2, ptr align 4 %5, i64 4, i1 false)
  %6 = getelementptr inbounds nuw %"class.llvm::Register", ptr %2, i32 0, i32 0
  %7 = load i32, ptr %6, align 4
  ret i32 %7
}

; Function Attrs: mustprogress nounwind uwtable
define internal void @_ZN12_GLOBAL__N_117RegisterCoalescer28checkMergingChangesDbgValuesERN4llvm13CoalescerPairERNS1_9LiveRangeERNS_8JoinValsES5_S7_(ptr noundef nonnull align 8 dereferenceable(960) %0, ptr noundef nonnull align 8 dereferenceable(40) %1, ptr noundef nonnull align 8 dereferenceable(104) %2, ptr noundef nonnull align 8 dereferenceable(520) %3, ptr noundef nonnull align 8 dereferenceable(104) %4, ptr noundef nonnull align 8 dereferenceable(520) %5) #1 align 2 {
  %7 = alloca ptr, align 8
  %8 = alloca ptr, align 8
  %9 = alloca ptr, align 8
  %10 = alloca ptr, align 8
  %11 = alloca ptr, align 8
  %12 = alloca ptr, align 8
  %13 = alloca %class.anon.600, align 8
  %14 = alloca %class.anon.601, align 8
  %15 = alloca %"class.llvm::Register", align 4
  %16 = alloca %"class.llvm::Register", align 4
  store ptr %0, ptr %7, align 8
  store ptr %1, ptr %8, align 8
  store ptr %2, ptr %9, align 8
  store ptr %3, ptr %10, align 8
  store ptr %4, ptr %11, align 8
  store ptr %5, ptr %12, align 8
  %17 = load ptr, ptr %7, align 8
  %18 = getelementptr inbounds nuw %class.anon.600, ptr %13, i32 0, i32 0
  store ptr %17, ptr %18, align 8
  %19 = getelementptr inbounds nuw %class.anon.600, ptr %13, i32 0, i32 1
  %20 = load ptr, ptr %11, align 8
  store ptr %20, ptr %19, align 8
  %21 = getelementptr inbounds nuw %class.anon.600, ptr %13, i32 0, i32 2
  %22 = load ptr, ptr %9, align 8
  store ptr %22, ptr %21, align 8
  %23 = getelementptr inbounds nuw %class.anon.600, ptr %13, i32 0, i32 3
  %24 = load ptr, ptr %10, align 8
  store ptr %24, ptr %23, align 8
  %25 = getelementptr inbounds nuw %class.anon.601, ptr %14, i32 0, i32 0
  store ptr %17, ptr %25, align 8
  %26 = getelementptr inbounds nuw %class.anon.601, ptr %14, i32 0, i32 1
  %27 = load ptr, ptr %9, align 8
  store ptr %27, ptr %26, align 8
  %28 = getelementptr inbounds nuw %class.anon.601, ptr %14, i32 0, i32 2
  %29 = load ptr, ptr %11, align 8
  store ptr %29, ptr %28, align 8
  %30 = getelementptr inbounds nuw %class.anon.601, ptr %14, i32 0, i32 3
  %31 = load ptr, ptr %12, align 8
  store ptr %31, ptr %30, align 8
  %32 = load ptr, ptr %8, align 8
  %33 = call i32 @_ZNK4llvm13CoalescerPair9getSrcRegEv(ptr noundef nonnull align 8 dereferenceable(40) %32)
  %34 = getelementptr inbounds nuw %"class.llvm::Register", ptr %15, i32 0, i32 0
  store i32 %33, ptr %34, align 4
  %35 = getelementptr inbounds nuw %"class.llvm::Register", ptr %15, i32 0, i32 0
  %36 = load i32, ptr %35, align 4
  call void @"_ZZN12_GLOBAL__N_117RegisterCoalescer28checkMergingChangesDbgValuesERN4llvm13CoalescerPairERNS1_9LiveRangeERNS_8JoinValsES5_S7_ENK3$_0clENS1_8RegisterE"(ptr noundef nonnull align 8 dereferenceable(32) %14, i32 %36)
  %37 = load ptr, ptr %8, align 8
  %38 = call i32 @_ZNK4llvm13CoalescerPair9getDstRegEv(ptr noundef nonnull align 8 dereferenceable(40) %37)
  %39 = getelementptr inbounds nuw %"class.llvm::Register", ptr %16, i32 0, i32 0
  store i32 %38, ptr %39, align 4
  %40 = getelementptr inbounds nuw %"class.llvm::Register", ptr %16, i32 0, i32 0
  %41 = load i32, ptr %40, align 4
  call void @"_ZZN12_GLOBAL__N_117RegisterCoalescer28checkMergingChangesDbgValuesERN4llvm13CoalescerPairERNS1_9LiveRangeERNS_8JoinValsES5_S7_ENK3$_1clENS1_8RegisterE"(ptr noundef nonnull align 8 dereferenceable(32) %13, i32 %41)
  ret void
}