; Function Attrs: mustprogress nounwind uwtable
define internal fastcc void @_ZN12_GLOBAL__N_117RegisterCoalescer28checkMergingChangesDbgValuesERN4llvm13CoalescerPairERNS1_9LiveRangeERNS_8JoinValsES5_S7_(ptr nocapture noundef nonnull readonly align 8 dereferenceable(960) %0, ptr nocapture noundef nonnull readonly align 8 dereferenceable(40) %1, ptr noundef nonnull align 8 dereferenceable(104) %2, ptr nocapture noundef nonnull readonly align 8 dereferenceable(520) %3, ptr noundef nonnull align 8 dereferenceable(104) %4, ptr nocapture noundef nonnull readonly align 8 dereferenceable(520) %5) unnamed_addr #0 align 2 {
  %7 = getelementptr inbounds nuw i8, ptr %1, i64 12
  %.sroa.0.0.copyload.i = load i32, ptr %7, align 4
  %8 = getelementptr inbounds i8, ptr %0, i64 488
  %.val.i = load ptr, ptr %8, align 8
  %9 = getelementptr inbounds i8, ptr %0, i64 504
  %.val2.i = load i32, ptr %9, align 8
  tail call fastcc void @_ZN12_GLOBAL__N_117RegisterCoalescer32checkMergingChangesDbgValuesImplEN4llvm8RegisterERNS1_9LiveRangeES4_RNS_8JoinValsE(ptr %.val.i, i32 %.val2.i, i32 %.sroa.0.0.copyload.i, ptr noundef nonnull align 8 dereferenceable(104) %2, ptr noundef nonnull align 8 dereferenceable(104) %4, ptr noundef nonnull align 8 dereferenceable(520) %5)
  %10 = getelementptr inbounds nuw i8, ptr %1, i64 8
  %.sroa.0.0.copyload.i10 = load i32, ptr %10, align 8
  %.val.i11 = load ptr, ptr %8, align 8
  %.val2.i12 = load i32, ptr %9, align 8
  tail call fastcc void @_ZN12_GLOBAL__N_117RegisterCoalescer32checkMergingChangesDbgValuesImplEN4llvm8RegisterERNS1_9LiveRangeES4_RNS_8JoinValsE(ptr %.val.i11, i32 %.val2.i12, i32 %.sroa.0.0.copyload.i10, ptr noundef nonnull align 8 dereferenceable(104) %4, ptr noundef nonnull align 8 dereferenceable(104) %2, ptr noundef nonnull align 8 dereferenceable(520) %3)
  ret void
}